(dp0
(I670
I-1
tp1
(dp2
(I0
F0.8
tp3
(dp4
S'c'
p5
F0.1701388888888889
sS'b'
p6
F0.5219123505976095
sS'other'
p7
F0.020228671943711522
ss(F1.6
F2.4
tp8
(dp9
g5
F0.08333333333333333
sg6
F0.125
sg7
F0.03359683794466403
ss(F0.8
F1.6
tp10
(dp11
g5
F0.14210526315789473
sg6
F0.358695652173913
sg7
F0.030204962243797196
sss(I210
I260
tp12
(dp13
(I0
F0.8
tp14
(dp15
g5
F0.18372298191442435
sg6
F0.701763137792882
sg7
F0.03886375796488156
ss(F1.6
F2.4
tp16
(dp17
g5
F0.141747572815534
sg6
F0.500828672053035
sg7
F0.017507615812878602
ss(F0.8
F1.6
tp18
(dp19
g5
F0.1533891439373481
sg6
F0.632413625697872
sg7
F0.030531940094227883
sss(I80
I100
tp20
(dp21
(I0
F0.8
tp22
(dp23
g5
F0.16264215609908086
sg6
F0.7092060136399931
sg7
F0.06629523786652577
ss(F1.6
F2.4
tp24
(dp25
g5
F0.12143813348632626
sg6
F0.5973247176761882
sg7
F0.03110620557987605
ss(F0.8
F1.6
tp26
(dp27
g5
F0.15526709935097355
sg6
F0.6829676445942857
sg7
F0.05076133712251059
sss(I500
I670
tp28
(dp29
(I0
F0.8
tp30
(dp31
g5
F0.12878787878787878
sg6
F0.5284313725490196
sg7
F0.023368095789880264
ss(F1.6
F2.4
tp32
(dp33
g5
F0.08527131782945736
sg6
F0.36363636363636365
sg7
F0.009429726088908847
ss(F0.8
F1.6
tp34
(dp35
g5
F0.13588110403397027
sg6
F0.41295546558704455
sg7
F0.017818806354658653
sss(I400
I500
tp36
(dp37
(I0
F0.8
tp38
(dp39
g5
F0.15414258188824662
sg6
F0.5716677829872739
sg7
F0.024167437557816838
ss(F1.6
F2.4
tp40
(dp41
g5
F0.10320284697508897
sg6
F0.34915254237288135
sg7
F0.01819720694033009
ss(F0.8
F1.6
tp42
(dp43
g5
F0.14842767295597484
sg6
F0.4785522788203753
sg7
F0.022570911285455644
sss(I30
I40
tp44
(dp45
(I0
F0.8
tp46
(dp47
g5
F0.14665655482622453
sg6
F0.6464180766939703
sg7
F0.03532967521671604
ss(F1.6
F2.4
tp48
(dp49
g5
F0.11263673219612942
sg6
F0.5295103519564847
sg7
F0.02608644720111872
ss(F0.8
F1.6
tp50
(dp51
g5
F0.137282978342581
sg6
F0.6108421847557818
sg7
F0.03184342684915034
sss(I260
I320
tp52
(dp53
(I0
F0.8
tp54
(dp55
g5
F0.1925976696367375
sg6
F0.6753023128399797
sg7
F0.03287801778907243
ss(F1.6
F2.4
tp56
(dp57
g5
F0.1164259927797834
sg6
F0.46638905413444376
sg7
F0.01794917362715479
ss(F0.8
F1.6
tp58
(dp59
g5
F0.16235190873189995
sg6
F0.5980426181717221
sg7
F0.02596174511068128
sss(I70
I80
tp60
(dp61
(I0
F0.8
tp62
(dp63
g5
F0.15985872235872237
sg6
F0.7044552394875231
sg7
F0.06295564853556486
ss(F1.6
F2.4
tp64
(dp65
g5
F0.11861921897907504
sg6
F0.5937898402539509
sg7
F0.030225388493105028
ss(F0.8
F1.6
tp66
(dp67
g5
F0.14794396746497968
sg6
F0.6749014258217629
sg7
F0.04892282478000812
sss(I320
I400
tp68
(dp69
(I0
F0.8
tp70
(dp71
g5
F0.16536661466458658
sg6
F0.6353391024350976
sg7
F0.02579798863139484
ss(F1.6
F2.4
tp72
(dp73
g5
F0.13351877607788595
sg6
F0.39670223084384093
sg7
F0.01803866852700817
ss(F0.8
F1.6
tp74
(dp75
g5
F0.14898255813953487
sg6
F0.547271329746349
sg7
F0.021666888209490896
sss(I50
I60
tp76
(dp77
(I0
F0.8
tp78
(dp79
g5
F0.15099306054079922
sg6
F0.6893817895099684
sg7
F0.04942584494193287
ss(F1.6
F2.4
tp80
(dp81
g5
F0.12485602395761346
sg6
F0.5794098212319104
sg7
F0.028181193321655838
ss(F0.8
F1.6
tp82
(dp83
g5
F0.1424747336793226
sg6
F0.6556215083798883
sg7
F0.04069580872761522
sss(I100
I120
tp84
(dp85
(I0
F0.8
tp86
(dp87
g5
F0.16579420267208375
sg6
F0.7094589271117502
sg7
F0.06361556405154233
ss(F1.6
F2.4
tp88
(dp89
g5
F0.1251246971640302
sg6
F0.5873463630868426
sg7
F0.027046909663551617
ss(F0.8
F1.6
tp90
(dp91
g5
F0.15386742878215176
sg6
F0.6788474418114638
sg7
F0.04829241809884125
sss(I160
I210
tp92
(dp93
(I0
F0.8
tp94
(dp95
g5
F0.19025570872356098
sg6
F0.7213048234913427
sg7
F0.05215552816941219
ss(F1.6
F2.4
tp96
(dp97
g5
F0.12938596491228072
sg6
F0.5438708553510249
sg7
F0.02069634057678326
ss(F0.8
F1.6
tp98
(dp99
g5
F0.17015233668990445
sg6
F0.6664792137047699
sg7
F0.03734460405795664
sss(I120
I160
tp100
(dp101
(I0
F0.8
tp102
(dp103
g5
F0.17436504803263586
sg6
F0.7178855017461504
sg7
F0.060418341142106605
ss(F1.6
F2.4
tp104
(dp105
g5
F0.13520848754009376
sg6
F0.5929765225221268
sg7
F0.02443289501963619
ss(F0.8
F1.6
tp106
(dp107
g5
F0.15604039781050036
sg6
F0.6799915436853954
sg7
F0.043631678355466406
sss(I60
I70
tp108
(dp109
(I0
F0.8
tp110
(dp111
g5
F0.1500984251968504
sg6
F0.694688858026074
sg7
F0.055387799163263175
ss(F1.6
F2.4
tp112
(dp113
g5
F0.1183993399339934
sg6
F0.5916217523251495
sg7
F0.030653455027549792
ss(F0.8
F1.6
tp114
(dp115
g5
F0.139862148190695
sg6
F0.6670729420588787
sg7
F0.045513228788322174
sss(I40
I50
tp116
(dp117
(I0
F0.8
tp118
(dp119
g5
F0.1382338001596401
sg6
F0.664300101627879
sg7
F0.04013634140218384
ss(F1.6
F2.4
tp120
(dp121
g5
F0.12202583276682528
sg6
F0.5603000239380802
sg7
F0.027638685666413147
ss(F0.8
F1.6
tp122
(dp123
g5
F0.1346313862539524
sg6
F0.6342693668598961
sg7
F0.03509025697037682
sss.