(dp0
(I670
I-1
tp1
(dp2
(I0
F0.8
tp3
(dp4
S'c'
p5
F0.13253012048192772
sS'b'
p6
F0.5142857142857142
sS'other'
p7
F0.024464831804281346
ss(F1.6
F2.4
tp8
(dp9
g5
F0.15384615384615385
sg6
F1.0
sg7
F0.041666666666666664
ss(F0.8
F1.6
tp10
(dp11
g5
F0.13636363636363635
sg6
F0.2962962962962963
sg7
F0.0150093808630394
sss(I210
I260
tp12
(dp13
(I0
F0.8
tp14
(dp15
g5
F0.17109458023379384
sg6
F0.691828793774319
sg7
F0.04072910119421747
ss(F1.6
F2.4
tp16
(dp17
g5
F0.14285714285714285
sg6
F0.4934245134139926
sg7
F0.014612452350698857
ss(F0.8
F1.6
tp18
(dp19
g5
F0.14492753623188406
sg6
F0.6279636905568351
sg7
F0.03029136182774997
sss(I80
I100
tp20
(dp21
(I0
F0.8
tp22
(dp23
g5
F0.15243722304283605
sg6
F0.6991294402981396
sg7
F0.05196524617294166
ss(F1.6
F2.4
tp24
(dp25
g5
F0.13300927971718957
sg6
F0.5855832721936904
sg7
F0.02307579962027165
ss(F0.8
F1.6
tp26
(dp27
g5
F0.14342366159947126
sg6
F0.670008686306553
sg7
F0.036099474106426596
sss(I500
I670
tp28
(dp29
(I0
F0.8
tp30
(dp31
g5
F0.16184971098265896
sg6
F0.569672131147541
sg7
F0.02090843547224225
ss(F1.6
F2.4
tp32
(dp33
g5
F0.09090909090909091
sg6
F0.25925925925925924
sg7
F0.009478672985781991
ss(F0.8
F1.6
tp34
(dp35
g5
F0.1044776119402985
sg6
F0.411214953271028
sg7
F0.012067578439259855
sss(I400
I500
tp36
(dp37
(I0
F0.8
tp38
(dp39
g5
F0.1791044776119403
sg6
F0.576437587657784
sg7
F0.021217712177121772
ss(F1.6
F2.4
tp40
(dp41
g5
F0.11428571428571428
sg6
F0.40298507462686567
sg7
F0.020958083832335328
ss(F0.8
F1.6
tp42
(dp43
g5
F0.11353711790393013
sg6
F0.4861878453038674
sg7
F0.0205840114887506
sss(I30
I40
tp44
(dp45
(I0
F0.8
tp46
(dp47
g5
F0.14393558127830902
sg6
F0.6398381514161751
sg7
F0.02451885051410493
ss(F1.6
F2.4
tp48
(dp49
g5
F0.11547742157876595
sg6
F0.5207075551543192
sg7
F0.021292956249363924
ss(F0.8
F1.6
tp50
(dp51
g5
F0.12938534942464217
sg6
F0.6006506514527477
sg7
F0.0228746347572005
sss(I260
I320
tp52
(dp53
(I0
F0.8
tp54
(dp55
g5
F0.1778115501519757
sg6
F0.6616019508534984
sg7
F0.033952354154942785
ss(F1.6
F2.4
tp56
(dp57
g5
F0.12578616352201258
sg6
F0.47651933701657456
sg7
F0.014814814814814815
ss(F0.8
F1.6
tp58
(dp59
g5
F0.12296564195298372
sg6
F0.5869713506139154
sg7
F0.026134800550206328
sss(I70
I80
tp60
(dp61
(I0
F0.8
tp62
(dp63
g5
F0.15220125786163521
sg6
F0.6920521182612956
sg7
F0.0447332023003567
ss(F1.6
F2.4
tp64
(dp65
g5
F0.10748560460652591
sg6
F0.5891969456259929
sg7
F0.024504591590140165
ss(F0.8
F1.6
tp66
(dp67
g5
F0.12868507253158634
sg6
F0.6646974943980444
sg7
F0.03337141956581695
sss(I320
I400
tp68
(dp69
(I0
F0.8
tp70
(dp71
g5
F0.1673913043478261
sg6
F0.6129905277401895
sg7
F0.027049180327868853
ss(F1.6
F2.4
tp72
(dp73
g5
F0.14673913043478262
sg6
F0.4722222222222222
sg7
F0.017884914463452566
ss(F0.8
F1.6
tp74
(dp75
g5
F0.16111111111111112
sg6
F0.5536626916524702
sg7
F0.018836097835254428
sss(I50
I60
tp76
(dp77
(I0
F0.8
tp78
(dp79
g5
F0.1409462472132772
sg6
F0.6843008853898414
sg7
F0.03189813848460123
ss(F1.6
F2.4
tp80
(dp81
g5
F0.12074098577571948
sg6
F0.5680319820451676
sg7
F0.019207505246265893
ss(F0.8
F1.6
tp82
(dp83
g5
F0.1354112100576218
sg6
F0.6476391825229034
sg7
F0.02586878923398843
sss(I100
I120
tp84
(dp85
(I0
F0.8
tp86
(dp87
g5
F0.16556873078612208
sg6
F0.6952334886993229
sg7
F0.053265215459795644
ss(F1.6
F2.4
tp88
(dp89
g5
F0.11127487103905674
sg6
F0.573310972688069
sg7
F0.02326125073056692
ss(F0.8
F1.6
tp90
(dp91
g5
F0.15020576131687244
sg6
F0.6669853480667897
sg7
F0.03745889529619215
sss(I160
I210
tp92
(dp93
(I0
F0.8
tp94
(dp95
g5
F0.18241235888294713
sg6
F0.7112723401871254
sg7
F0.048764544384886914
ss(F1.6
F2.4
tp96
(dp97
g5
F0.10365853658536585
sg6
F0.5307288449660285
sg7
F0.019012703555290306
ss(F0.8
F1.6
tp98
(dp99
g5
F0.15782312925170067
sg6
F0.6577877278749943
sg7
F0.03632349989965884
sss(I120
I160
tp100
(dp101
(I0
F0.8
tp102
(dp103
g5
F0.17052791492594
sg6
F0.702168505299589
sg7
F0.05198776758409786
ss(F1.6
F2.4
tp104
(dp105
g5
F0.14538558786346398
sg6
F0.5849068519103252
sg7
F0.02279874213836478
ss(F0.8
F1.6
tp106
(dp107
g5
F0.14895509115162295
sg6
F0.6673332624188916
sg7
F0.03926359691620677
sss(I60
I70
tp108
(dp109
(I0
F0.8
tp110
(dp111
g5
F0.1424483306836248
sg6
F0.6837546284537956
sg7
F0.03675724734397523
ss(F1.6
F2.4
tp112
(dp113
g5
F0.11273584905660378
sg6
F0.5827237748932392
sg7
F0.022015896461982133
ss(F0.8
F1.6
tp114
(dp115
g5
F0.13725490196078433
sg6
F0.6560955279430865
sg7
F0.029512877287029483
sss(I40
I50
tp116
(dp117
(I0
F0.8
tp118
(dp119
g5
F0.12136355523826521
sg6
F0.6569244814832155
sg7
F0.0245725943907856
ss(F1.6
F2.4
tp120
(dp121
g5
F0.11530912659470069
sg6
F0.5550030693677103
sg7
F0.02108625129594328
ss(F0.8
F1.6
tp122
(dp123
g5
F0.12406606370428627
sg6
F0.6220122739018088
sg7
F0.02280738418669453
sss.